target datalayout = "e-m:e-p270:32:32-p271:32:32-p272:64:64-i64:64-i128:128-f80:128-n8:16:32:64-S128"
target triple = "x86_64-pc-linux-gnu"

%"struct.icu_77::CollationData" = type <{ ptr, ptr, ptr, ptr, ptr, ptr, ptr, i32, i32, i32, i32, ptr, ptr, ptr, i32, i32, ptr, ptr, i32, [4 x i8], ptr, i32, [4 x i8] }>

; Function Attrs: inlinehint mustprogress nounwind uwtable
define linkonce_odr noundef i32 @_ZN6icu_779Collation13indexFromCE32Ej(i32 noundef %0) #2 comdat align 2 {
  %2 = alloca i32, align 4
  store i32 %0, ptr %2, align 4, !tbaa !8
  %3 = load i32, ptr %2, align 4, !tbaa !8
  %4 = lshr i32 %3, 13
  ret i32 %4
}

; Function Attrs: inlinehint mustprogress nounwind uwtable
define linkonce_odr noundef i32 @_ZN6icu_779Collation11tagFromCE32Ej(i32 noundef %0) #2 comdat align 2 {
  %2 = alloca i32, align 4
  store i32 %0, ptr %2, align 4, !tbaa !8
  %3 = load i32, ptr %2, align 4, !tbaa !8
  %4 = and i32 %3, 15
  ret i32 %4
}

; Function Attrs: mustprogress uwtable
define noundef i32 @_ZNK6icu_7713CollationData15getIndirectCE32Ej(ptr noundef nonnull align 8 dereferenceable(140) %0, i32 noundef %1) #0 align 2 {
  %3 = alloca ptr, align 8
  %4 = alloca i32, align 4
  %5 = alloca i32, align 4
  store ptr %0, ptr %3, align 8, !tbaa !3
  store i32 %1, ptr %4, align 4, !tbaa !8
  %6 = load ptr, ptr %3, align 8
  call void @llvm.lifetime.start.p0(i64 4, ptr %5) #7
  %7 = load i32, ptr %4, align 4, !tbaa !8
  %8 = call noundef i32 @_ZN6icu_779Collation11tagFromCE32Ej(i32 noundef %7)
  store i32 %8, ptr %5, align 4, !tbaa !8
  %9 = load i32, ptr %5, align 4, !tbaa !8
  %10 = icmp eq i32 %9, 10
  br i1 %10, label %11, label %19

11:                                               ; preds = %2
  %12 = getelementptr inbounds nuw %"struct.icu_77::CollationData", ptr %6, i32 0, i32 1
  %13 = load ptr, ptr %12, align 8, !tbaa !10
  %14 = load i32, ptr %4, align 4, !tbaa !8
  %15 = call noundef i32 @_ZN6icu_779Collation13indexFromCE32Ej(i32 noundef %14)
  %16 = sext i32 %15 to i64
  %17 = getelementptr inbounds i32, ptr %13, i64 %16
  %18 = load i32, ptr %17, align 4, !tbaa !8
  store i32 %18, ptr %4, align 4, !tbaa !8
  br label %33

19:                                               ; preds = %2
  %20 = load i32, ptr %5, align 4, !tbaa !8
  %21 = icmp eq i32 %20, 13
  br i1 %21, label %22, label %23

22:                                               ; preds = %19
  store i32 -1, ptr %4, align 4, !tbaa !8
  br label %32

23:                                               ; preds = %19
  %24 = load i32, ptr %5, align 4, !tbaa !8
  %25 = icmp eq i32 %24, 11
  br i1 %25, label %26, label %31

26:                                               ; preds = %23
  %27 = getelementptr inbounds nuw %"struct.icu_77::CollationData", ptr %6, i32 0, i32 1
  %28 = load ptr, ptr %27, align 8, !tbaa !10
  %29 = getelementptr inbounds i32, ptr %28, i64 0
  %30 = load i32, ptr %29, align 4, !tbaa !8
  store i32 %30, ptr %4, align 4, !tbaa !8
  br label %31

31:                                               ; preds = %26, %23
  br label %32

32:                                               ; preds = %31, %22
  br label %33

33:                                               ; preds = %32, %11
  %34 = load i32, ptr %4, align 4, !tbaa !8
  call void @llvm.lifetime.end.p0(i64 4, ptr %5) #7
  ret i32 %34
}

; Function Attrs: inlinehint mustprogress nounwind uwtable
define linkonce_odr noundef signext i8 @_ZN6icu_779Collation13isSpecialCE32Ej(i32 noundef %0) #2 comdat align 2 {
  %2 = alloca i32, align 4
  store i32 %0, ptr %2, align 4, !tbaa !8
  %3 = load i32, ptr %2, align 4, !tbaa !8
  %4 = and i32 %3, 255
  %5 = icmp uge i32 %4, 192
  %6 = zext i1 %5 to i8
  ret i8 %6
}

; Function Attrs: mustprogress uwtable
define noundef i32 @_ZNK6icu_7713CollationData12getFinalCE32Ej(ptr noundef nonnull align 8 dereferenceable(140) %0, i32 noundef %1) #0 align 2 {
  %3 = alloca ptr, align 8
  %4 = alloca i32, align 4
  store ptr %0, ptr %3, align 8, !tbaa !3
  store i32 %1, ptr %4, align 4, !tbaa !8
  %5 = load ptr, ptr %3, align 8
  %6 = load i32, ptr %4, align 4, !tbaa !8
  %7 = call noundef signext i8 @_ZN6icu_779Collation13isSpecialCE32Ej(i32 noundef %6)
  %8 = icmp ne i8 %7, 0
  br i1 %8, label %9, label %12

9:                                                ; preds = %2
  %10 = load i32, ptr %4, align 4, !tbaa !8
  %11 = call noundef i32 @_ZNK6icu_7713CollationData15getIndirectCE32Ej(ptr noundef nonnull align 8 dereferenceable(140) %5, i32 noundef %10)
  store i32 %11, ptr %4, align 4, !tbaa !8
  br label %12

12:                                               ; preds = %9, %2
  %13 = load i32, ptr %4, align 4, !tbaa !8
  ret i32 %13
}