; Function Attrs: mustprogress nofree norecurse nosync nounwind willreturn memory(read, inaccessiblemem: none) uwtable
define noundef i32 @_ZNK6icu_7713CollationData12getFinalCE32Ej(ptr noundef nonnull readonly align 8 captures(none) dereferenceable(140) %0, i32 noundef %1) local_unnamed_addr #0 align 2 {
  %3 = and i32 %1, 192
  %.not = icmp eq i32 %3, 192
  br i1 %.not, label %4, label %_ZNK6icu_7713CollationData15getIndirectCE32Ej.exit

4:                                                ; preds = %2
  %5 = and i32 %1, 15
  switch i32 %5, label %.fold.split.i [
    i32 10, label %6
    i32 13, label %_ZNK6icu_7713CollationData15getIndirectCE32Ej.exit
    i32 11, label %13
  ]

6:                                                ; preds = %4
  %7 = getelementptr inbounds nuw i8, ptr %0, i64 8
  %8 = load ptr, ptr %7, align 8, !tbaa !3
  %9 = lshr i32 %1, 13
  %10 = zext nneg i32 %9 to i64
  %11 = getelementptr inbounds nuw i32, ptr %8, i64 %10
  %12 = load i32, ptr %11, align 4, !tbaa !18
  br label %_ZNK6icu_7713CollationData15getIndirectCE32Ej.exit

13:                                               ; preds = %4
  %14 = getelementptr inbounds nuw i8, ptr %0, i64 8
  %15 = load ptr, ptr %14, align 8, !tbaa !3
  %16 = load i32, ptr %15, align 4, !tbaa !18
  br label %_ZNK6icu_7713CollationData15getIndirectCE32Ej.exit

.fold.split.i:                                    ; preds = %4
  br label %_ZNK6icu_7713CollationData15getIndirectCE32Ej.exit

_ZNK6icu_7713CollationData15getIndirectCE32Ej.exit: ; preds = %.fold.split.i, %13, %6, %4, %2
  %.0 = phi i32 [ %1, %2 ], [ %12, %6 ], [ %16, %13 ], [ -1, %4 ], [ %1, %.fold.split.i ]
  ret i32 %.0
}